target datalayout = "e-m:e-p270:32:32-p271:32:32-p272:64:64-i64:64-i128:128-f80:128-n8:16:32:64-S128"
target triple = "x86_64-pc-linux-gnu"

%struct.bb_state = type { %struct.bb_config, ptr, ptr, ptr, %union.pthread_mutex_t, i64, i64, ptr, i64, i64, i64, ptr, %union.pthread_cond_t, i8, %union.pthread_mutex_t, i64, i32, i32, i64, i64 }
%struct.bb_config = type { ptr, ptr, ptr, ptr, ptr, ptr, ptr, ptr, i32, ptr, ptr, i64, i32, ptr, i32, i32, i32, i32, ptr, ptr, ptr, ptr, i32 }
%union.pthread_cond_t = type { %struct.__pthread_cond_s }
%struct.__pthread_cond_s = type { %union.__atomic_wide_counter, %union.__atomic_wide_counter, [2 x i32], [2 x i32], i32, i32, [2 x i32] }
%union.__atomic_wide_counter = type { i64 }
%union.pthread_mutex_t = type { %struct.__pthread_mutex_s }
%struct.__pthread_mutex_s = type { i32, i32, i32, i32, i32, i16, i16, %struct.__pthread_internal_list }
%struct.__pthread_internal_list = type { ptr, ptr }
%struct.bb_user = type { i32, ptr, i64, i32 }
%struct.burst_buffer_pool_t = type { i64, ptr, i64, i64, i64 }

@.str = private unnamed_addr constant [22 x i8] c"burst_buffer_common.c\00", align 1
@__func__.bb_find_user_rec = private unnamed_addr constant [17 x i8] c"bb_find_user_rec\00", align 1
@.str.95 = private unnamed_addr constant [30 x i8] c"%s: Unable to located pool %s\00", align 1
@__func__.bb_limit_add = private unnamed_addr constant [13 x i8] c"bb_limit_add\00", align 1

; Function Attrs: nounwind uwtable
define dso_local ptr @bb_find_user_rec(i32 noundef %0, ptr noundef %1) #0 {
  %3 = alloca ptr, align 8
  %4 = alloca i32, align 4
  %5 = alloca ptr, align 8
  %6 = alloca i32, align 4
  %7 = alloca ptr, align 8
  %8 = alloca i32, align 4
  store i32 %0, ptr %4, align 4
  store ptr %1, ptr %5, align 8
  call void @llvm.lifetime.start.p0(i64 4, ptr %6) #9
  %9 = load i32, ptr %4, align 4
  %10 = urem i32 %9, 100
  store i32 %10, ptr %6, align 4
  call void @llvm.lifetime.start.p0(i64 8, ptr %7) #9
  %11 = load ptr, ptr %5, align 8
  %12 = getelementptr inbounds nuw %struct.bb_state, ptr %11, i32 0, i32 3
  %13 = load ptr, ptr %12, align 8
  %14 = load i32, ptr %6, align 4
  %15 = sext i32 %14 to i64
  %16 = getelementptr inbounds ptr, ptr %13, i64 %15
  %17 = load ptr, ptr %16, align 8
  store ptr %17, ptr %7, align 8
  br label %18

18:                                               ; preds = %29, %2
  %19 = load ptr, ptr %7, align 8
  %20 = icmp ne ptr %19, null
  br i1 %20, label %21, label %33

21:                                               ; preds = %18
  %22 = load ptr, ptr %7, align 8
  %23 = getelementptr inbounds nuw %struct.bb_user, ptr %22, i32 0, i32 3
  %24 = load i32, ptr %23, align 8
  %25 = load i32, ptr %4, align 4
  %26 = icmp eq i32 %24, %25
  br i1 %26, label %27, label %29

27:                                               ; preds = %21
  %28 = load ptr, ptr %7, align 8
  store ptr %28, ptr %3, align 8
  store i32 1, ptr %8, align 4
  br label %57

29:                                               ; preds = %21
  %30 = load ptr, ptr %7, align 8
  %31 = getelementptr inbounds nuw %struct.bb_user, ptr %30, i32 0, i32 1
  %32 = load ptr, ptr %31, align 8
  store ptr %32, ptr %7, align 8
  br label %18, !llvm.loop !25

33:                                               ; preds = %18
  %34 = call ptr @slurm_xcalloc(i64 noundef 1, i64 noundef 32, i1 noundef zeroext true, i1 noundef zeroext false, ptr noundef @.str, i32 noundef 315, ptr noundef @__func__.bb_find_user_rec)
  store ptr %34, ptr %7, align 8
  %35 = load ptr, ptr %7, align 8
  %36 = getelementptr inbounds nuw %struct.bb_user, ptr %35, i32 0, i32 0
  store i32 -559074157, ptr %36, align 8
  %37 = load ptr, ptr %5, align 8
  %38 = getelementptr inbounds nuw %struct.bb_state, ptr %37, i32 0, i32 3
  %39 = load ptr, ptr %38, align 8
  %40 = load i32, ptr %6, align 4
  %41 = sext i32 %40 to i64
  %42 = getelementptr inbounds ptr, ptr %39, i64 %41
  %43 = load ptr, ptr %42, align 8
  %44 = load ptr, ptr %7, align 8
  %45 = getelementptr inbounds nuw %struct.bb_user, ptr %44, i32 0, i32 1
  store ptr %43, ptr %45, align 8
  %46 = load i32, ptr %4, align 4
  %47 = load ptr, ptr %7, align 8
  %48 = getelementptr inbounds nuw %struct.bb_user, ptr %47, i32 0, i32 3
  store i32 %46, ptr %48, align 8
  %49 = load ptr, ptr %7, align 8
  %50 = load ptr, ptr %5, align 8
  %51 = getelementptr inbounds nuw %struct.bb_state, ptr %50, i32 0, i32 3
  %52 = load ptr, ptr %51, align 8
  %53 = load i32, ptr %6, align 4
  %54 = sext i32 %53 to i64
  %55 = getelementptr inbounds ptr, ptr %52, i64 %54
  store ptr %49, ptr %55, align 8
  %56 = load ptr, ptr %7, align 8
  store ptr %56, ptr %3, align 8
  store i32 1, ptr %8, align 4
  br label %57

57:                                               ; preds = %33, %27
  call void @llvm.lifetime.end.p0(i64 8, ptr %7) #9
  call void @llvm.lifetime.end.p0(i64 4, ptr %6) #9
  %58 = load ptr, ptr %3, align 8
  ret ptr %58
}

; Function Attrs: nounwind uwtable
define dso_local void @bb_limit_add(i32 noundef %0, i64 noundef %1, ptr noundef %2, ptr noundef %3, i1 noundef zeroext %4) #0 {
  %6 = alloca i32, align 4
  %7 = alloca i64, align 8
  %8 = alloca ptr, align 8
  %9 = alloca ptr, align 8
  %10 = alloca i8, align 1
  %11 = alloca ptr, align 8
  %12 = alloca ptr, align 8
  %13 = alloca i32, align 4
  store i32 %0, ptr %6, align 4
  store i64 %1, ptr %7, align 8
  store ptr %2, ptr %8, align 8
  store ptr %3, ptr %9, align 8
  %14 = zext i1 %4 to i8
  store i8 %14, ptr %10, align 1
  call void @llvm.lifetime.start.p0(i64 8, ptr %11) #9
  call void @llvm.lifetime.start.p0(i64 8, ptr %12) #9
  call void @llvm.lifetime.start.p0(i64 4, ptr %13) #9
  %15 = load ptr, ptr %8, align 8
  %16 = icmp ne ptr %15, null
  br i1 %16, label %17, label %25

17:                                               ; preds = %5
  %18 = load ptr, ptr %8, align 8
  %19 = load ptr, ptr %9, align 8
  %20 = getelementptr inbounds nuw %struct.bb_state, ptr %19, i32 0, i32 0
  %21 = getelementptr inbounds nuw %struct.bb_config, ptr %20, i32 0, i32 3
  %22 = load ptr, ptr %21, align 8
  %23 = call i32 @xstrcmp(ptr noundef %18, ptr noundef %22)
  %24 = icmp ne i32 %23, 0
  br i1 %24, label %40, label %25

25:                                               ; preds = %17, %5
  %26 = load i64, ptr %7, align 8
  %27 = load ptr, ptr %9, align 8
  %28 = getelementptr inbounds nuw %struct.bb_state, ptr %27, i32 0, i32 18
  %29 = load i64, ptr %28, align 8
  %30 = add i64 %29, %26
  store i64 %30, ptr %28, align 8
  %31 = load i8, ptr %10, align 1, !range !17, !noundef !18
  %32 = trunc i8 %31 to i1
  br i1 %32, label %33, label %39

33:                                               ; preds = %25
  %34 = load i64, ptr %7, align 8
  %35 = load ptr, ptr %9, align 8
  %36 = getelementptr inbounds nuw %struct.bb_state, ptr %35, i32 0, i32 19
  %37 = load i64, ptr %36, align 8
  %38 = add i64 %37, %34
  store i64 %38, ptr %36, align 8
  br label %39

39:                                               ; preds = %33, %25
  br label %91

40:                                               ; preds = %17
  %41 = load ptr, ptr %9, align 8
  %42 = getelementptr inbounds nuw %struct.bb_state, ptr %41, i32 0, i32 0
  %43 = getelementptr inbounds nuw %struct.bb_config, ptr %42, i32 0, i32 13
  %44 = load ptr, ptr %43, align 8
  store ptr %44, ptr %11, align 8
  store i32 0, ptr %13, align 4
  br label %45

45:                                               ; preds = %75, %40
  %46 = load i32, ptr %13, align 4
  %47 = load ptr, ptr %9, align 8
  %48 = getelementptr inbounds nuw %struct.bb_state, ptr %47, i32 0, i32 0
  %49 = getelementptr inbounds nuw %struct.bb_config, ptr %48, i32 0, i32 12
  %50 = load i32, ptr %49, align 8
  %51 = icmp ult i32 %46, %50
  br i1 %51, label %52, label %80

52:                                               ; preds = %45
  %53 = load ptr, ptr %8, align 8
  %54 = load ptr, ptr %11, align 8
  %55 = getelementptr inbounds nuw %struct.burst_buffer_pool_t, ptr %54, i32 0, i32 1
  %56 = load ptr, ptr %55, align 8
  %57 = call i32 @xstrcmp(ptr noundef %53, ptr noundef %56)
  %58 = icmp ne i32 %57, 0
  br i1 %58, label %59, label %60

59:                                               ; preds = %52
  br label %75

60:                                               ; preds = %52
  %61 = load i64, ptr %7, align 8
  %62 = load ptr, ptr %11, align 8
  %63 = getelementptr inbounds nuw %struct.burst_buffer_pool_t, ptr %62, i32 0, i32 3
  %64 = load i64, ptr %63, align 8
  %65 = add i64 %64, %61
  store i64 %65, ptr %63, align 8
  %66 = load i8, ptr %10, align 1, !range !17, !noundef !18
  %67 = trunc i8 %66 to i1
  br i1 %67, label %68, label %74

68:                                               ; preds = %60
  %69 = load i64, ptr %7, align 8
  %70 = load ptr, ptr %11, align 8
  %71 = getelementptr inbounds nuw %struct.burst_buffer_pool_t, ptr %70, i32 0, i32 4
  %72 = load i64, ptr %71, align 8
  %73 = add i64 %72, %69
  store i64 %73, ptr %71, align 8
  br label %74

74:                                               ; preds = %68, %60
  br label %80

75:                                               ; preds = %59
  %76 = load i32, ptr %13, align 4
  %77 = add nsw i32 %76, 1
  store i32 %77, ptr %13, align 4
  %78 = load ptr, ptr %11, align 8
  %79 = getelementptr inbounds nuw %struct.burst_buffer_pool_t, ptr %78, i32 1
  store ptr %79, ptr %11, align 8
  br label %45, !llvm.loop !47

80:                                               ; preds = %74, %45
  %81 = load i32, ptr %13, align 4
  %82 = load ptr, ptr %9, align 8
  %83 = getelementptr inbounds nuw %struct.bb_state, ptr %82, i32 0, i32 0
  %84 = getelementptr inbounds nuw %struct.bb_config, ptr %83, i32 0, i32 12
  %85 = load i32, ptr %84, align 8
  %86 = icmp uge i32 %81, %85
  br i1 %86, label %87, label %90

87:                                               ; preds = %80
  %88 = load ptr, ptr %8, align 8
  %89 = call i32 (ptr, ...) @error(ptr noundef @.str.95, ptr noundef @__func__.bb_limit_add, ptr noundef %88)
  br label %90

90:                                               ; preds = %87, %80
  br label %91

91:                                               ; preds = %90, %39
  %92 = load i32, ptr %6, align 4
  %93 = load ptr, ptr %9, align 8
  %94 = call ptr @bb_find_user_rec(i32 noundef %92, ptr noundef %93)
  store ptr %94, ptr %12, align 8
  %95 = load i64, ptr %7, align 8
  %96 = load ptr, ptr %12, align 8
  %97 = getelementptr inbounds nuw %struct.bb_user, ptr %96, i32 0, i32 2
  %98 = load i64, ptr %97, align 8
  %99 = add i64 %98, %95
  store i64 %99, ptr %97, align 8
  call void @llvm.lifetime.end.p0(i64 4, ptr %13) #9
  call void @llvm.lifetime.end.p0(i64 8, ptr %12) #9
  call void @llvm.lifetime.end.p0(i64 8, ptr %11) #9
  ret void
}