; Function Attrs: nounwind uwtable
define dso_local void @bb_limit_add(i32 noundef %0, i64 noundef %1, ptr noundef %2, ptr noundef captures(none) %3, i1 noundef zeroext %4) local_unnamed_addr #0 {
  %.not = icmp eq ptr %2, null
  br i1 %.not, label %10, label %6

6:                                                ; preds = %5
  %7 = getelementptr inbounds nuw i8, ptr %3, i64 24
  %8 = load ptr, ptr %7, align 8
  %9 = tail call i32 @xstrcmp(ptr noundef nonnull %2, ptr noundef %8) #17
  %.not28 = icmp eq i32 %9, 0
  br i1 %.not28, label %10, label %18

10:                                               ; preds = %6, %5
  %11 = getelementptr inbounds nuw i8, ptr %3, i64 400
  %12 = load i64, ptr %11, align 8
  %13 = add i64 %12, %1
  store i64 %13, ptr %11, align 8
  br i1 %4, label %14, label %42

14:                                               ; preds = %10
  %15 = getelementptr inbounds nuw i8, ptr %3, i64 408
  %16 = load i64, ptr %15, align 8
  %17 = add i64 %16, %1
  store i64 %17, ptr %15, align 8
  br label %42

18:                                               ; preds = %6
  %19 = getelementptr inbounds nuw i8, ptr %3, i64 96
  %20 = load i32, ptr %19, align 8
  %.not38 = icmp eq i32 %20, 0
  br i1 %.not38, label %.loopexit, label %.lr.ph.preheader

.lr.ph.preheader:                                 ; preds = %18
  %21 = getelementptr inbounds nuw i8, ptr %3, i64 104
  %22 = load ptr, ptr %21, align 8
  br label %.lr.ph

.lr.ph:                                           ; preds = %.lr.ph.preheader, %34
  %.037 = phi i32 [ %35, %34 ], [ 0, %.lr.ph.preheader ]
  %.02636 = phi ptr [ %36, %34 ], [ %22, %.lr.ph.preheader ]
  %23 = getelementptr inbounds nuw i8, ptr %.02636, i64 8
  %24 = load ptr, ptr %23, align 8
  %25 = tail call i32 @xstrcmp(ptr noundef nonnull %2, ptr noundef %24) #17
  %.not29 = icmp eq i32 %25, 0
  br i1 %.not29, label %26, label %34

26:                                               ; preds = %.lr.ph
  %27 = getelementptr inbounds nuw i8, ptr %.02636, i64 24
  %28 = load i64, ptr %27, align 8
  %29 = add i64 %28, %1
  store i64 %29, ptr %27, align 8
  br i1 %4, label %30, label %.loopexit

30:                                               ; preds = %26
  %31 = getelementptr inbounds nuw i8, ptr %.02636, i64 32
  %32 = load i64, ptr %31, align 8
  %33 = add i64 %32, %1
  store i64 %33, ptr %31, align 8
  br label %.loopexit

34:                                               ; preds = %.lr.ph
  %35 = add nuw nsw i32 %.037, 1
  %36 = getelementptr inbounds nuw i8, ptr %.02636, i64 40
  %37 = load i32, ptr %19, align 8
  %38 = icmp ult i32 %35, %37
  br i1 %38, label %.lr.ph, label %.loopexit, !llvm.loop !47

.loopexit:                                        ; preds = %34, %18, %26, %30
  %.034 = phi i32 [ %.037, %26 ], [ %.037, %30 ], [ 0, %18 ], [ %35, %34 ]
  %39 = load i32, ptr %19, align 8
  %.not30 = icmp ult i32 %.034, %39
  br i1 %.not30, label %42, label %40

40:                                               ; preds = %.loopexit
  %41 = tail call i32 (ptr, ...) @error(ptr noundef nonnull @.str.95, ptr noundef nonnull @__func__.bb_limit_add, ptr noundef nonnull %2) #17
  br label %42

42:                                               ; preds = %.loopexit, %40, %10, %14
  %43 = urem i32 %0, 100
  %44 = getelementptr inbounds nuw i8, ptr %3, i64 184
  %45 = load ptr, ptr %44, align 8
  %46 = zext nneg i32 %43 to i64
  %47 = getelementptr inbounds nuw ptr, ptr %45, i64 %46
  %.020.i = load ptr, ptr %47, align 8
  %.not21.i = icmp eq ptr %.020.i, null
  br i1 %.not21.i, label %._crit_edge.i, label %.lr.ph.i

.lr.ph.i:                                         ; preds = %42, %51
  %.022.i = phi ptr [ %.0.i, %51 ], [ %.020.i, %42 ]
  %48 = getelementptr inbounds nuw i8, ptr %.022.i, i64 24
  %49 = load i32, ptr %48, align 8
  %50 = icmp eq i32 %49, %0
  br i1 %50, label %bb_find_user_rec.exit, label %51

51:                                               ; preds = %.lr.ph.i
  %52 = getelementptr inbounds nuw i8, ptr %.022.i, i64 8
  %.0.i = load ptr, ptr %52, align 8
  %.not.i = icmp eq ptr %.0.i, null
  br i1 %.not.i, label %._crit_edge.i, label %.lr.ph.i, !llvm.loop !23

._crit_edge.i:                                    ; preds = %51, %42
  %53 = tail call ptr @slurm_xcalloc(i64 noundef 1, i64 noundef 32, i1 noundef zeroext true, i1 noundef zeroext false, ptr noundef nonnull @.str, i32 noundef 315, ptr noundef nonnull @__func__.bb_find_user_rec) #17
  store i32 -559074157, ptr %53, align 8
  %54 = load ptr, ptr %44, align 8
  %55 = getelementptr inbounds nuw ptr, ptr %54, i64 %46
  %56 = load ptr, ptr %55, align 8
  %57 = getelementptr inbounds nuw i8, ptr %53, i64 8
  store ptr %56, ptr %57, align 8
  %58 = getelementptr inbounds nuw i8, ptr %53, i64 24
  store i32 %0, ptr %58, align 8
  %59 = load ptr, ptr %44, align 8
  %60 = getelementptr inbounds nuw ptr, ptr %59, i64 %46
  store ptr %53, ptr %60, align 8
  br label %bb_find_user_rec.exit

bb_find_user_rec.exit:                            ; preds = %.lr.ph.i, %._crit_edge.i
  %.018.i = phi ptr [ %53, %._crit_edge.i ], [ %.022.i, %.lr.ph.i ]
  %61 = getelementptr inbounds nuw i8, ptr %.018.i, i64 16
  %62 = load i64, ptr %61, align 8
  %63 = add i64 %62, %1
  store i64 %63, ptr %61, align 8
  ret void
}